target datalayout = "e-m:e-p270:32:32-p271:32:32-p272:64:64-i64:64-i128:128-f80:128-n8:16:32:64-S128"
target triple = "x86_64-pc-linux-gnu"

%struct.ACCESS_DESCRIPTION_st = type { ptr, ptr }
%struct.CONF_VALUE = type { ptr, ptr, ptr }

@.str.5 = private unnamed_addr constant [33 x i8] c"../openssl/crypto/x509/v3_info.c\00", align 1
@__func__.i2v_AUTHORITY_INFO_ACCESS = private unnamed_addr constant [26 x i8] c"i2v_AUTHORITY_INFO_ACCESS\00", align 1
@.str.6 = private unnamed_addr constant [8 x i8] c"%s - %s\00", align 1

; Function Attrs: inlinehint nounwind uwtable
define internal ptr @ossl_check_CONF_VALUE_freefunc_type(ptr noundef %0) #3 {
  %2 = alloca ptr, align 8
  store ptr %0, ptr %2, align 8, !tbaa !20
  %3 = load ptr, ptr %2, align 8, !tbaa !20
  ret ptr %3
}

; Function Attrs: inlinehint nounwind uwtable
define internal ptr @ossl_check_CONF_VALUE_sk_type(ptr noundef %0) #3 {
  %2 = alloca ptr, align 8
  store ptr %0, ptr %2, align 8, !tbaa !10
  %3 = load ptr, ptr %2, align 8, !tbaa !10
  ret ptr %3
}

; Function Attrs: inlinehint nounwind uwtable
define internal ptr @ossl_check_const_CONF_VALUE_sk_type(ptr noundef %0) #3 {
  %2 = alloca ptr, align 8
  store ptr %0, ptr %2, align 8, !tbaa !10
  %3 = load ptr, ptr %2, align 8, !tbaa !10
  ret ptr %3
}

; Function Attrs: inlinehint nounwind uwtable
define internal ptr @ossl_check_const_ACCESS_DESCRIPTION_sk_type(ptr noundef %0) #3 {
  %2 = alloca ptr, align 8
  store ptr %0, ptr %2, align 8, !tbaa !8
  %3 = load ptr, ptr %2, align 8, !tbaa !8
  ret ptr %3
}

; Function Attrs: nounwind uwtable
define internal ptr @i2v_AUTHORITY_INFO_ACCESS(ptr noundef %0, ptr noundef %1, ptr noundef %2) #0 {
  %4 = alloca ptr, align 8
  %5 = alloca ptr, align 8
  %6 = alloca ptr, align 8
  %7 = alloca ptr, align 8
  %8 = alloca ptr, align 8
  %9 = alloca i32, align 4
  %10 = alloca i32, align 4
  %11 = alloca [80 x i8], align 16
  %12 = alloca ptr, align 8
  %13 = alloca ptr, align 8
  %14 = alloca ptr, align 8
  %15 = alloca ptr, align 8
  %16 = alloca i32, align 4
  store ptr %0, ptr %5, align 8, !tbaa !3
  store ptr %1, ptr %6, align 8, !tbaa !8
  store ptr %2, ptr %7, align 8, !tbaa !10
  call void @llvm.lifetime.start.p0(i64 8, ptr %8) #5
  call void @llvm.lifetime.start.p0(i64 4, ptr %9) #5
  call void @llvm.lifetime.start.p0(i64 4, ptr %10) #5
  call void @llvm.lifetime.start.p0(i64 80, ptr %11) #5
  call void @llvm.lifetime.start.p0(i64 8, ptr %12) #5
  call void @llvm.lifetime.start.p0(i64 8, ptr %13) #5
  call void @llvm.lifetime.start.p0(i64 8, ptr %14) #5
  %17 = load ptr, ptr %7, align 8, !tbaa !10
  store ptr %17, ptr %14, align 8, !tbaa !10
  store i32 0, ptr %9, align 4, !tbaa !12
  br label %18

18:                                               ; preds = %83, %3
  %19 = load i32, ptr %9, align 4, !tbaa !12
  %20 = load ptr, ptr %6, align 8, !tbaa !8
  %21 = call ptr @ossl_check_const_ACCESS_DESCRIPTION_sk_type(ptr noundef %20)
  %22 = call i32 @OPENSSL_sk_num(ptr noundef %21)
  %23 = icmp slt i32 %19, %22
  br i1 %23, label %24, label %86

24:                                               ; preds = %18
  call void @llvm.lifetime.start.p0(i64 8, ptr %15) #5
  %25 = load ptr, ptr %6, align 8, !tbaa !8
  %26 = call ptr @ossl_check_const_ACCESS_DESCRIPTION_sk_type(ptr noundef %25)
  %27 = load i32, ptr %9, align 4, !tbaa !12
  %28 = call ptr @OPENSSL_sk_value(ptr noundef %26, i32 noundef %27)
  store ptr %28, ptr %8, align 8, !tbaa !14
  %29 = load ptr, ptr %5, align 8, !tbaa !3
  %30 = load ptr, ptr %8, align 8, !tbaa !14
  %31 = getelementptr inbounds nuw %struct.ACCESS_DESCRIPTION_st, ptr %30, i32 0, i32 1
  %32 = load ptr, ptr %31, align 8, !tbaa !16
  %33 = load ptr, ptr %14, align 8, !tbaa !10
  %34 = call ptr @i2v_GENERAL_NAME(ptr noundef %29, ptr noundef %32, ptr noundef %33)
  store ptr %34, ptr %15, align 8, !tbaa !10
  %35 = load ptr, ptr %15, align 8, !tbaa !10
  %36 = icmp eq ptr %35, null
  br i1 %36, label %37, label %38

37:                                               ; preds = %24
  call void @ERR_new()
  call void @ERR_set_debug(ptr noundef @.str.5, i32 noundef 77, ptr noundef @__func__.i2v_AUTHORITY_INFO_ACCESS)
  call void (i32, i32, ptr, ...) @ERR_set_error(i32 noundef 34, i32 noundef 524301, ptr noundef null)
  store i32 5, ptr %16, align 4
  br label %80

38:                                               ; preds = %24
  %39 = load ptr, ptr %15, align 8, !tbaa !10
  store ptr %39, ptr %14, align 8, !tbaa !10
  %40 = load ptr, ptr %14, align 8, !tbaa !10
  %41 = call ptr @ossl_check_const_CONF_VALUE_sk_type(ptr noundef %40)
  %42 = load i32, ptr %9, align 4, !tbaa !12
  %43 = call ptr @OPENSSL_sk_value(ptr noundef %41, i32 noundef %42)
  store ptr %43, ptr %13, align 8, !tbaa !20
  %44 = getelementptr inbounds [80 x i8], ptr %11, i64 0, i64 0
  %45 = load ptr, ptr %8, align 8, !tbaa !14
  %46 = getelementptr inbounds nuw %struct.ACCESS_DESCRIPTION_st, ptr %45, i32 0, i32 0
  %47 = load ptr, ptr %46, align 8, !tbaa !21
  %48 = call i32 @i2t_ASN1_OBJECT(ptr noundef %44, i32 noundef 80, ptr noundef %47)
  %49 = getelementptr inbounds [80 x i8], ptr %11, i64 0, i64 0
  %50 = call i64 @strlen(ptr noundef %49) #6
  %51 = add i64 %50, 3
  %52 = load ptr, ptr %13, align 8, !tbaa !20
  %53 = getelementptr inbounds nuw %struct.CONF_VALUE, ptr %52, i32 0, i32 1
  %54 = load ptr, ptr %53, align 8, !tbaa !22
  %55 = call i64 @strlen(ptr noundef %54) #6
  %56 = add i64 %51, %55
  %57 = add i64 %56, 1
  %58 = trunc i64 %57 to i32
  store i32 %58, ptr %10, align 4, !tbaa !12
  %59 = load i32, ptr %10, align 4, !tbaa !12
  %60 = sext i32 %59 to i64
  %61 = call noalias ptr @CRYPTO_malloc(i64 noundef %60, ptr noundef @.str.5, i32 noundef 84)
  store ptr %61, ptr %12, align 8, !tbaa !25
  %62 = load ptr, ptr %12, align 8, !tbaa !25
  %63 = icmp eq ptr %62, null
  br i1 %63, label %64, label %65

64:                                               ; preds = %38
  store i32 5, ptr %16, align 4
  br label %80

65:                                               ; preds = %38
  %66 = load ptr, ptr %12, align 8, !tbaa !25
  %67 = load i32, ptr %10, align 4, !tbaa !12
  %68 = sext i32 %67 to i64
  %69 = getelementptr inbounds [80 x i8], ptr %11, i64 0, i64 0
  %70 = load ptr, ptr %13, align 8, !tbaa !20
  %71 = getelementptr inbounds nuw %struct.CONF_VALUE, ptr %70, i32 0, i32 1
  %72 = load ptr, ptr %71, align 8, !tbaa !22
  %73 = call i32 (ptr, i64, ptr, ...) @BIO_snprintf(ptr noundef %66, i64 noundef %68, ptr noundef @.str.6, ptr noundef %69, ptr noundef %72)
  %74 = load ptr, ptr %13, align 8, !tbaa !20
  %75 = getelementptr inbounds nuw %struct.CONF_VALUE, ptr %74, i32 0, i32 1
  %76 = load ptr, ptr %75, align 8, !tbaa !22
  call void @CRYPTO_free(ptr noundef %76, ptr noundef @.str.5, i32 noundef 88)
  %77 = load ptr, ptr %12, align 8, !tbaa !25
  %78 = load ptr, ptr %13, align 8, !tbaa !20
  %79 = getelementptr inbounds nuw %struct.CONF_VALUE, ptr %78, i32 0, i32 1
  store ptr %77, ptr %79, align 8, !tbaa !22
  store i32 0, ptr %16, align 4
  br label %80

80:                                               ; preds = %64, %37, %65
  call void @llvm.lifetime.end.p0(i64 8, ptr %15) #5
  %81 = load i32, ptr %16, align 4
  switch i32 %81, label %107 [
    i32 0, label %82
    i32 5, label %96
  ]

82:                                               ; preds = %80
  br label %83

83:                                               ; preds = %82
  %84 = load i32, ptr %9, align 4, !tbaa !12
  %85 = add nsw i32 %84, 1
  store i32 %85, ptr %9, align 4, !tbaa !12
  br label %18, !llvm.loop !26

86:                                               ; preds = %18
  %87 = load ptr, ptr %7, align 8, !tbaa !10
  %88 = icmp eq ptr %87, null
  br i1 %88, label %89, label %94

89:                                               ; preds = %86
  %90 = load ptr, ptr %14, align 8, !tbaa !10
  %91 = icmp eq ptr %90, null
  br i1 %91, label %92, label %94

92:                                               ; preds = %89
  %93 = call ptr @OPENSSL_sk_new_null()
  store ptr %93, ptr %4, align 8
  store i32 1, ptr %16, align 4
  br label %107

94:                                               ; preds = %89, %86
  %95 = load ptr, ptr %14, align 8, !tbaa !10
  store ptr %95, ptr %4, align 8
  store i32 1, ptr %16, align 4
  br label %107

96:                                               ; preds = %80
  %97 = load ptr, ptr %7, align 8, !tbaa !10
  %98 = icmp eq ptr %97, null
  br i1 %98, label %99, label %106

99:                                               ; preds = %96
  %100 = load ptr, ptr %14, align 8, !tbaa !10
  %101 = icmp ne ptr %100, null
  br i1 %101, label %102, label %106

102:                                              ; preds = %99
  %103 = load ptr, ptr %14, align 8, !tbaa !10
  %104 = call ptr @ossl_check_CONF_VALUE_sk_type(ptr noundef %103)
  %105 = call ptr @ossl_check_CONF_VALUE_freefunc_type(ptr noundef @X509V3_conf_free)
  call void @OPENSSL_sk_pop_free(ptr noundef %104, ptr noundef %105)
  br label %106

106:                                              ; preds = %102, %99, %96
  store ptr null, ptr %4, align 8
  store i32 1, ptr %16, align 4
  br label %107

107:                                              ; preds = %106, %94, %92, %80
  call void @llvm.lifetime.end.p0(i64 8, ptr %14) #5
  call void @llvm.lifetime.end.p0(i64 8, ptr %13) #5
  call void @llvm.lifetime.end.p0(i64 8, ptr %12) #5
  call void @llvm.lifetime.end.p0(i64 80, ptr %11) #5
  call void @llvm.lifetime.end.p0(i64 4, ptr %10) #5
  call void @llvm.lifetime.end.p0(i64 4, ptr %9) #5
  call void @llvm.lifetime.end.p0(i64 8, ptr %8) #5
  %108 = load ptr, ptr %4, align 8
  ret ptr %108
}