; Function Attrs: nounwind uwtable
define internal ptr @i2v_AUTHORITY_INFO_ACCESS(ptr noundef %0, ptr noundef %1, ptr noundef %2) #1 {
  %4 = alloca [80 x i8], align 16
  call void @llvm.lifetime.start.p0(i64 80, ptr nonnull %4) #5
  %5 = tail call i32 @OPENSSL_sk_num(ptr noundef %1) #5
  %6 = icmp sgt i32 %5, 0
  br i1 %6, label %.lr.ph, label %._crit_edge

.lr.ph:                                           ; preds = %3, %27
  %.03445 = phi ptr [ %10, %27 ], [ %2, %3 ]
  %.03544 = phi i32 [ %31, %27 ], [ 0, %3 ]
  %7 = call ptr @OPENSSL_sk_value(ptr noundef %1, i32 noundef %.03544) #5
  %8 = getelementptr inbounds nuw i8, ptr %7, i64 8
  %9 = load ptr, ptr %8, align 8, !tbaa !3
  %10 = call ptr @i2v_GENERAL_NAME(ptr noundef %0, ptr noundef %9, ptr noundef %.03445) #5
  %11 = icmp eq ptr %10, null
  br i1 %11, label %12, label %13

12:                                               ; preds = %.lr.ph
  call void @ERR_new() #5
  call void @ERR_set_debug(ptr noundef nonnull @.str.5, i32 noundef 77, ptr noundef nonnull @__func__.i2v_AUTHORITY_INFO_ACCESS) #5
  call void (i32, i32, ptr, ...) @ERR_set_error(i32 noundef 34, i32 noundef 524301, ptr noundef null) #5
  br label %.loopexit

13:                                               ; preds = %.lr.ph
  %14 = call ptr @OPENSSL_sk_value(ptr noundef nonnull %10, i32 noundef %.03544) #5
  %15 = load ptr, ptr %7, align 8, !tbaa !10
  %16 = call i32 @i2t_ASN1_OBJECT(ptr noundef nonnull %4, i32 noundef 80, ptr noundef %15) #5
  %17 = call i64 @strlen(ptr noundef nonnull dereferenceable(1) %4) #6
  %18 = add i64 %17, 3
  %19 = getelementptr inbounds nuw i8, ptr %14, i64 8
  %20 = load ptr, ptr %19, align 8, !tbaa !11
  %21 = call i64 @strlen(ptr noundef nonnull dereferenceable(1) %20) #6
  %22 = add i64 %18, %21
  %23 = shl i64 %22, 32
  %sext = add i64 %23, 4294967296
  %24 = ashr exact i64 %sext, 32
  %25 = call noalias ptr @CRYPTO_malloc(i64 noundef %24, ptr noundef nonnull @.str.5, i32 noundef 84) #5
  %26 = icmp eq ptr %25, null
  br i1 %26, label %.loopexit, label %27

27:                                               ; preds = %13
  %28 = load ptr, ptr %19, align 8, !tbaa !11
  %29 = call i32 (ptr, i64, ptr, ...) @BIO_snprintf(ptr noundef nonnull %25, i64 noundef %24, ptr noundef nonnull @.str.6, ptr noundef nonnull %4, ptr noundef %28) #5
  %30 = load ptr, ptr %19, align 8, !tbaa !11
  call void @CRYPTO_free(ptr noundef %30, ptr noundef nonnull @.str.5, i32 noundef 88) #5
  store ptr %25, ptr %19, align 8, !tbaa !11
  %31 = add nuw nsw i32 %.03544, 1
  %32 = call i32 @OPENSSL_sk_num(ptr noundef %1) #5
  %33 = icmp slt i32 %31, %32
  br i1 %33, label %.lr.ph, label %._crit_edge.thread, !llvm.loop !14

._crit_edge:                                      ; preds = %3
  %34 = icmp eq ptr %2, null
  br i1 %34, label %35, label %._crit_edge.thread

35:                                               ; preds = %._crit_edge
  %36 = tail call ptr @OPENSSL_sk_new_null() #5
  br label %._crit_edge.thread

.loopexit:                                        ; preds = %13, %12
  %.1.ph = phi ptr [ %.03445, %12 ], [ %10, %13 ]
  %37 = icmp eq ptr %2, null
  %38 = icmp ne ptr %.1.ph, null
  %or.cond3 = and i1 %37, %38
  br i1 %or.cond3, label %39, label %._crit_edge.thread

39:                                               ; preds = %.loopexit
  call void @OPENSSL_sk_pop_free(ptr noundef nonnull %.1.ph, ptr noundef nonnull @X509V3_conf_free) #5
  br label %._crit_edge.thread

._crit_edge.thread:                               ; preds = %27, %.loopexit, %39, %._crit_edge, %35
  %.033 = phi ptr [ %36, %35 ], [ %2, %._crit_edge ], [ null, %39 ], [ null, %.loopexit ], [ %10, %27 ]
  call void @llvm.lifetime.end.p0(i64 80, ptr nonnull %4) #5
  ret ptr %.033
}